; Function Attrs: mustprogress uwtable
define void @_ZN2cv4gapi3wip3gst23GStreamerPipelineFacade24getElementsByFactoryNameERKNSt7__cxx1112basic_stringIcSt11char_traitsIcESaIcEEE(ptr dead_on_unwind noalias writable writeonly sret(%"class.std::vector") align 8 captures(none) initializes((0, 24)) %0, ptr noundef nonnull readonly align 8 captures(none) dereferenceable(96) %1, ptr noundef nonnull align 8 dereferenceable(32) %2) local_unnamed_addr #4 align 2 personality ptr @__gxx_personality_v0 {
  %4 = alloca %"class.std::function", align 8
  %5 = ptrtoint ptr %2 to i64
  %6 = getelementptr inbounds nuw i8, ptr %4, i64 16
  %7 = getelementptr inbounds nuw i8, ptr %4, i64 24
  %8 = getelementptr inbounds nuw i8, ptr %4, i64 8
  store i64 0, ptr %8, align 8
  store i64 %5, ptr %4, align 8, !tbaa !38
  store ptr @"_ZNSt17_Function_handlerIFbP11_GstElementEZN2cv4gapi3wip3gst23GStreamerPipelineFacade24getElementsByFactoryNameERKNSt7__cxx1112basic_stringIcSt11char_traitsIcESaIcEEEE3$_0E9_M_invokeERKSt9_Any_dataOS1_", ptr %7, align 8, !tbaa !40
  store ptr @"_ZNSt17_Function_handlerIFbP11_GstElementEZN2cv4gapi3wip3gst23GStreamerPipelineFacade24getElementsByFactoryNameERKNSt7__cxx1112basic_stringIcSt11char_traitsIcESaIcEEEE3$_0E10_M_managerERSt9_Any_dataRKSI_St18_Manager_operation", ptr %6, align 8, !tbaa !43
  invoke void @_ZN2cv4gapi3wip3gst23GStreamerPipelineFacade11getElementsESt8functionIFbP11_GstElementEE(ptr dead_on_unwind writable sret(%"class.std::vector") align 8 %0, ptr noundef nonnull align 8 dereferenceable(96) %1, ptr noundef nonnull %4)
          to label %9 unwind label %16

9:                                                ; preds = %3
  %10 = load ptr, ptr %6, align 8, !tbaa !43
  %.not.i = icmp eq ptr %10, null
  br i1 %.not.i, label %_ZNSt14_Function_baseD2Ev.exit, label %11

11:                                               ; preds = %9
  %12 = invoke noundef zeroext i1 %10(ptr noundef nonnull align 8 dereferenceable(32) %4, ptr noundef nonnull align 8 dereferenceable(32) %4, i32 noundef 3)
          to label %_ZNSt14_Function_baseD2Ev.exit unwind label %13

13:                                               ; preds = %11
  %14 = landingpad { ptr, i32 }
          catch ptr null
  %15 = extractvalue { ptr, i32 } %14, 0
  call void @__clang_call_terminate(ptr %15) #26
  unreachable

_ZNSt14_Function_baseD2Ev.exit:                   ; preds = %9, %11
  ret void

16:                                               ; preds = %3
  %17 = landingpad { ptr, i32 }
          cleanup
  %18 = load ptr, ptr %6, align 8, !tbaa !43
  %.not.i4 = icmp eq ptr %18, null
  br i1 %.not.i4, label %_ZNSt14_Function_baseD2Ev.exit5, label %19

19:                                               ; preds = %16
  %20 = invoke noundef zeroext i1 %18(ptr noundef nonnull align 8 dereferenceable(32) %4, ptr noundef nonnull align 8 dereferenceable(32) %4, i32 noundef 3)
          to label %_ZNSt14_Function_baseD2Ev.exit5 unwind label %21

21:                                               ; preds = %19
  %22 = landingpad { ptr, i32 }
          catch ptr null
  %23 = extractvalue { ptr, i32 } %22, 0
  call void @__clang_call_terminate(ptr %23) #26
  unreachable

_ZNSt14_Function_baseD2Ev.exit5:                  ; preds = %16, %19
  resume { ptr, i32 } %17
}